target datalayout = "e-m:e-p270:32:32-p271:32:32-p272:64:64-i64:64-i128:128-f80:128-n8:16:32:64-S128"
target triple = "x86_64-pc-linux-gnu"

%struct.ec_group_st = type { ptr, ptr, %struct.bignum_st, %struct.bignum_st, i32, ptr, %struct.bignum_st, %struct.bignum_st, %struct.bignum_st, i32, ptr, %struct.bignum_st }
%struct.bignum_st = type { ptr, i32, i32, i32, i32 }
%struct.ec_point_st = type { ptr, %struct.bignum_st, %struct.bignum_st, %struct.bignum_st }

@.str = private unnamed_addr constant [119 x i8] c"generated/home/dtcxzyw/WorkSpace/Projects/compilers/llvm-opt-benchmark/bench/libquic/libquic/boringssl/crypto/ec/oct.c\00", align 1

; Function Attrs: nounwind uwtable
define hidden i32 @EC_POINT_set_compressed_coordinates_GFp(ptr noundef %0, ptr noundef %1, ptr noundef %2, i32 noundef %3, ptr noundef %4) #0 {
  %6 = alloca i32, align 4
  %7 = alloca ptr, align 8
  %8 = alloca ptr, align 8
  %9 = alloca ptr, align 8
  %10 = alloca i32, align 4
  %11 = alloca ptr, align 8
  store ptr %0, ptr %7, align 8, !tbaa !6
  store ptr %1, ptr %8, align 8, !tbaa !11
  store ptr %2, ptr %9, align 8, !tbaa !30
  store i32 %3, ptr %10, align 4, !tbaa !28
  store ptr %4, ptr %11, align 8, !tbaa !17
  %12 = load ptr, ptr %7, align 8, !tbaa !6
  %13 = getelementptr inbounds nuw %struct.ec_group_st, ptr %12, i32 0, i32 0
  %14 = load ptr, ptr %13, align 8, !tbaa !19
  %15 = load ptr, ptr %8, align 8, !tbaa !11
  %16 = getelementptr inbounds nuw %struct.ec_point_st, ptr %15, i32 0, i32 0
  %17 = load ptr, ptr %16, align 8, !tbaa !26
  %18 = icmp ne ptr %14, %17
  br i1 %18, label %19, label %20

19:                                               ; preds = %5
  call void @ERR_put_error(i32 noundef 15, i32 noundef 0, i32 noundef 106, ptr noundef @.str, i32 noundef 424)
  store i32 0, ptr %6, align 4
  br label %27

20:                                               ; preds = %5
  %21 = load ptr, ptr %7, align 8, !tbaa !6
  %22 = load ptr, ptr %8, align 8, !tbaa !11
  %23 = load ptr, ptr %9, align 8, !tbaa !30
  %24 = load i32, ptr %10, align 4, !tbaa !28
  %25 = load ptr, ptr %11, align 8, !tbaa !17
  %26 = call i32 @ec_GFp_simple_set_compressed_coordinates(ptr noundef %21, ptr noundef %22, ptr noundef %23, i32 noundef %24, ptr noundef %25)
  store i32 %26, ptr %6, align 4
  br label %27

27:                                               ; preds = %20, %19
  %28 = load i32, ptr %6, align 4
  ret i32 %28
}