; Function Attrs: nounwind uwtable
define hidden range(i32 0, 2) i32 @EC_POINT_set_compressed_coordinates_GFp(ptr noundef %0, ptr noundef %1, ptr noundef %2, i32 noundef %3, ptr noundef %4) local_unnamed_addr #0 {
  %6 = load ptr, ptr %0, align 8, !tbaa !6
  %7 = load ptr, ptr %1, align 8, !tbaa !17
  %.not = icmp eq ptr %6, %7
  br i1 %.not, label %9, label %8

8:                                                ; preds = %5
  tail call void @ERR_put_error(i32 noundef 15, i32 noundef 0, i32 noundef 106, ptr noundef nonnull @.str, i32 noundef 424) #3
  br label %11

9:                                                ; preds = %5
  %10 = tail call i32 @ec_GFp_simple_set_compressed_coordinates(ptr noundef nonnull %0, ptr noundef nonnull %1, ptr noundef %2, i32 noundef %3, ptr noundef %4)
  br label %11

11:                                               ; preds = %9, %8
  %.0 = phi i32 [ 0, %8 ], [ %10, %9 ]
  ret i32 %.0
}